target datalayout = "e-m:e-p270:32:32-p271:32:32-p272:64:64-i64:64-i128:128-f80:128-n8:16:32:64-S128"
target triple = "x86_64-unknown-linux-gnu"

%"class.grpc_core::Duration" = type { i64 }
%"class.grpc_core::ChannelIdleFilter" = type { %"class.grpc_core::ImplementChannelFilter", ptr, %"class.grpc_core::Duration", %"class.std::shared_ptr.1", %"class.grpc_core::SingleSetPtr" }
%"class.grpc_core::ImplementChannelFilter" = type { %"class.grpc_core::ChannelFilter" }
%"class.grpc_core::ChannelFilter" = type { ptr, %"class.std::shared_ptr" }
%"class.std::shared_ptr" = type { %"class.std::__shared_ptr" }
%"class.std::__shared_ptr" = type { ptr, %"class.std::__shared_count" }
%"class.std::__shared_count" = type { ptr }
%"class.std::shared_ptr.1" = type { %"class.std::__shared_ptr.2" }
%"class.std::__shared_ptr.2" = type { ptr, %"class.std::__shared_count" }
%"class.grpc_core::SingleSetPtr" = type { %"struct.std::atomic.4" }
%"struct.std::atomic.4" = type { %"struct.std::__atomic_base.5" }
%"struct.std::__atomic_base.5" = type { ptr }
%"class.grpc_core::MaxAgeFilter" = type { %"class.grpc_core::ChannelIdleFilter", %"class.grpc_core::SingleSetPtr", %"class.grpc_core::Duration", %"class.grpc_core::Duration" }
%"class.grpc_core::OrphanableDelete" = type { i8 }

; Function Attrs: mustprogress nounwind uwtable
define linkonce_odr noundef ptr @_ZNKSt12__shared_ptrIN9grpc_core15IdleFilterStateELN9__gnu_cxx12_Lock_policyE2EE3getEv(ptr noundef nonnull align 8 dereferenceable(16) %this) #5 comdat align 2 {
entry:
  %this.addr = alloca ptr, align 8
  store ptr %this, ptr %this.addr, align 8
  %this1 = load ptr, ptr %this.addr, align 8
  %_M_ptr = getelementptr inbounds %"class.std::__shared_ptr.2", ptr %this1, i32 0, i32 0
  %0 = load ptr, ptr %_M_ptr, align 8
  ret ptr %0
}

; Function Attrs: mustprogress nounwind uwtable
define linkonce_odr noundef ptr @_ZNKSt19__shared_ptr_accessIN9grpc_core15IdleFilterStateELN9__gnu_cxx12_Lock_policyE2ELb0ELb0EE6_M_getEv(ptr noundef nonnull align 1 dereferenceable(1) %this) #5 comdat align 2 {
entry:
  %this.addr = alloca ptr, align 8
  store ptr %this, ptr %this.addr, align 8
  %this1 = load ptr, ptr %this.addr, align 8
  %call = call noundef ptr @_ZNKSt12__shared_ptrIN9grpc_core15IdleFilterStateELN9__gnu_cxx12_Lock_policyE2EE3getEv(ptr noundef nonnull align 8 dereferenceable(16) %this1) #3
  ret ptr %call
}

; Function Attrs: mustprogress nounwind uwtable
define linkonce_odr noundef ptr @_ZNKSt19__shared_ptr_accessIN9grpc_core15IdleFilterStateELN9__gnu_cxx12_Lock_policyE2ELb0ELb0EEptEv(ptr noundef nonnull align 1 dereferenceable(1) %this) #5 comdat align 2 {
entry:
  %this.addr = alloca ptr, align 8
  store ptr %this, ptr %this.addr, align 8
  %this1 = load ptr, ptr %this.addr, align 8
  %call = call noundef ptr @_ZNKSt19__shared_ptr_accessIN9grpc_core15IdleFilterStateELN9__gnu_cxx12_Lock_policyE2ELb0ELb0EE6_M_getEv(ptr noundef nonnull align 1 dereferenceable(1) %this1) #3
  ret ptr %call
}

; Function Attrs: mustprogress uwtable
define linkonce_odr void @_ZN9grpc_core16OrphanableDeleteclINS_8ActivityEEEvPT_(ptr noundef nonnull align 1 dereferenceable(1) %this, ptr noundef %p) #4 comdat align 2 {
entry:
  %this.addr = alloca ptr, align 8
  %p.addr = alloca ptr, align 8
  store ptr %this, ptr %this.addr, align 8
  store ptr %p, ptr %p.addr, align 8
  %0 = load ptr, ptr %p.addr, align 8
  %vtable = load ptr, ptr %0, align 8
  %vfn = getelementptr inbounds ptr, ptr %vtable, i64 0
  %1 = load ptr, ptr %vfn, align 8
  call void %1(ptr noundef nonnull align 8 dereferenceable(8) %0)
  ret void
}

; Function Attrs: mustprogress uwtable
define void @_ZN9grpc_core17ChannelIdleFilter17IncreaseCallCountEv(ptr noundef nonnull align 8 dereferenceable(64) %this) #4 align 2 {
entry:
  %this.addr = alloca ptr, align 8
  store ptr %this, ptr %this.addr, align 8
  %this1 = load ptr, ptr %this.addr, align 8
  %idle_filter_state_ = getelementptr inbounds %"class.grpc_core::ChannelIdleFilter", ptr %this1, i32 0, i32 3
  %call = call noundef ptr @_ZNKSt19__shared_ptr_accessIN9grpc_core15IdleFilterStateELN9__gnu_cxx12_Lock_policyE2ELb0ELb0EEptEv(ptr noundef nonnull align 1 dereferenceable(1) %idle_filter_state_) #3
  call void @_ZN9grpc_core15IdleFilterState17IncreaseCallCountEv(ptr noundef nonnull align 8 dereferenceable(8) %call)
  ret void
}

; Function Attrs: mustprogress uwtable
define linkonce_odr void @_ZN9grpc_core12SingleSetPtrINS_8ActivityENS_16OrphanableDeleteEE6DeleteEPS1_(ptr noundef %p) #4 comdat align 2 {
entry:
  %p.addr = alloca ptr, align 8
  %ref.tmp = alloca %"class.grpc_core::OrphanableDelete", align 1
  store ptr %p, ptr %p.addr, align 8
  %0 = load ptr, ptr %p.addr, align 8
  %cmp = icmp eq ptr %0, null
  br i1 %cmp, label %if.then, label %if.end

if.then:                                          ; preds = %entry
  br label %return

if.end:                                           ; preds = %entry
  %1 = load ptr, ptr %p.addr, align 8
  call void @_ZN9grpc_core16OrphanableDeleteclINS_8ActivityEEEvPT_(ptr noundef nonnull align 1 dereferenceable(1) %ref.tmp, ptr noundef %1)
  br label %return

return:                                           ; preds = %if.end, %if.then
  ret void
}

; Function Attrs: mustprogress nounwind uwtable
define linkonce_odr noundef ptr @_ZNSt6atomicIPN9grpc_core8ActivityEE8exchangeES2_St12memory_order(ptr noundef nonnull align 8 dereferenceable(8) %this, ptr noundef %__p, i32 noundef %__m) #5 comdat align 2 {
entry:
  %this.addr.i = alloca ptr, align 8
  %__p.addr.i = alloca ptr, align 8
  %__m.addr.i = alloca i32, align 4
  %.atomictmp.i = alloca ptr, align 8
  %atomic-temp.i = alloca ptr, align 8
  %this.addr = alloca ptr, align 8
  %__p.addr = alloca ptr, align 8
  %__m.addr = alloca i32, align 4
  store ptr %this, ptr %this.addr, align 8
  store ptr %__p, ptr %__p.addr, align 8
  store i32 %__m, ptr %__m.addr, align 4
  %this1 = load ptr, ptr %this.addr, align 8
  %_M_b = getelementptr inbounds %"struct.std::atomic.4", ptr %this1, i32 0, i32 0
  %0 = load ptr, ptr %__p.addr, align 8
  %1 = load i32, ptr %__m.addr, align 4
  store ptr %_M_b, ptr %this.addr.i, align 8
  store ptr %0, ptr %__p.addr.i, align 8
  store i32 %1, ptr %__m.addr.i, align 4
  %this1.i = load ptr, ptr %this.addr.i, align 8
  %2 = load i32, ptr %__m.addr.i, align 4
  %3 = load ptr, ptr %__p.addr.i, align 8
  store ptr %3, ptr %.atomictmp.i, align 8
  switch i32 %2, label %monotonic.i [
    i32 1, label %acquire.i
    i32 2, label %acquire.i
    i32 3, label %release.i
    i32 4, label %acqrel.i
    i32 5, label %seqcst.i
  ]

monotonic.i:                                      ; preds = %entry
  %4 = load i64, ptr %.atomictmp.i, align 8
  %5 = atomicrmw xchg ptr %this1.i, i64 %4 monotonic, align 8
  store i64 %5, ptr %atomic-temp.i, align 8
  br label %_ZNSt13__atomic_baseIPN9grpc_core8ActivityEE8exchangeES2_St12memory_order.exit

acquire.i:                                        ; preds = %entry, %entry
  %6 = load i64, ptr %.atomictmp.i, align 8
  %7 = atomicrmw xchg ptr %this1.i, i64 %6 acquire, align 8
  store i64 %7, ptr %atomic-temp.i, align 8
  br label %_ZNSt13__atomic_baseIPN9grpc_core8ActivityEE8exchangeES2_St12memory_order.exit

release.i:                                        ; preds = %entry
  %8 = load i64, ptr %.atomictmp.i, align 8
  %9 = atomicrmw xchg ptr %this1.i, i64 %8 release, align 8
  store i64 %9, ptr %atomic-temp.i, align 8
  br label %_ZNSt13__atomic_baseIPN9grpc_core8ActivityEE8exchangeES2_St12memory_order.exit

acqrel.i:                                         ; preds = %entry
  %10 = load i64, ptr %.atomictmp.i, align 8
  %11 = atomicrmw xchg ptr %this1.i, i64 %10 acq_rel, align 8
  store i64 %11, ptr %atomic-temp.i, align 8
  br label %_ZNSt13__atomic_baseIPN9grpc_core8ActivityEE8exchangeES2_St12memory_order.exit

seqcst.i:                                         ; preds = %entry
  %12 = load i64, ptr %.atomictmp.i, align 8
  %13 = atomicrmw xchg ptr %this1.i, i64 %12 seq_cst, align 8
  store i64 %13, ptr %atomic-temp.i, align 8
  br label %_ZNSt13__atomic_baseIPN9grpc_core8ActivityEE8exchangeES2_St12memory_order.exit

_ZNSt13__atomic_baseIPN9grpc_core8ActivityEE8exchangeES2_St12memory_order.exit: ; preds = %seqcst.i, %acqrel.i, %release.i, %acquire.i, %monotonic.i
  %14 = load ptr, ptr %atomic-temp.i, align 8
  ret ptr %14
}

; Function Attrs: mustprogress uwtable
define void @_ZN9grpc_core17ChannelIdleFilter8ShutdownEv(ptr noundef nonnull align 8 dereferenceable(64) %this) unnamed_addr #4 align 2 {
entry:
  %this.addr = alloca ptr, align 8
  store ptr %this, ptr %this.addr, align 8
  %this1 = load ptr, ptr %this.addr, align 8
  call void @_ZN9grpc_core17ChannelIdleFilter17IncreaseCallCountEv(ptr noundef nonnull align 8 dereferenceable(64) %this1)
  %activity_ = getelementptr inbounds %"class.grpc_core::ChannelIdleFilter", ptr %this1, i32 0, i32 4
  call void @_ZN9grpc_core12SingleSetPtrINS_8ActivityENS_16OrphanableDeleteEE5ResetEv(ptr noundef nonnull align 8 dereferenceable(8) %activity_)
  ret void
}

; Function Attrs: mustprogress uwtable
define linkonce_odr void @_ZN9grpc_core12SingleSetPtrINS_8ActivityENS_16OrphanableDeleteEE5ResetEv(ptr noundef nonnull align 8 dereferenceable(8) %this) #4 comdat align 2 {
entry:
  %this.addr = alloca ptr, align 8
  store ptr %this, ptr %this.addr, align 8
  %this1 = load ptr, ptr %this.addr, align 8
  %p_ = getelementptr inbounds %"class.grpc_core::SingleSetPtr", ptr %this1, i32 0, i32 0
  %call = call noundef ptr @_ZNSt6atomicIPN9grpc_core8ActivityEE8exchangeES2_St12memory_order(ptr noundef nonnull align 8 dereferenceable(8) %p_, ptr noundef null, i32 noundef 4) #3
  call void @_ZN9grpc_core12SingleSetPtrINS_8ActivityENS_16OrphanableDeleteEE6DeleteEPS1_(ptr noundef %call)
  ret void
}

; Function Attrs: mustprogress uwtable
define void @_ZN9grpc_core12MaxAgeFilter8ShutdownEv(ptr noundef nonnull align 8 dereferenceable(88) %this) unnamed_addr #4 align 2 {
entry:
  %this.addr = alloca ptr, align 8
  store ptr %this, ptr %this.addr, align 8
  %this1 = load ptr, ptr %this.addr, align 8
  %max_age_activity_ = getelementptr inbounds %"class.grpc_core::MaxAgeFilter", ptr %this1, i32 0, i32 1
  call void @_ZN9grpc_core12SingleSetPtrINS_8ActivityENS_16OrphanableDeleteEE5ResetEv(ptr noundef nonnull align 8 dereferenceable(8) %max_age_activity_)
  call void @_ZN9grpc_core17ChannelIdleFilter8ShutdownEv(ptr noundef nonnull align 8 dereferenceable(64) %this1)
  ret void
}